; Function Attrs: mustprogress nounwind uwtable
define hidden noundef nonnull ptr @_ZN6hermes9IRBuilder15createParameterEPNS_8FunctionEN4llvh9StringRefE(ptr noundef nonnull readonly align 8 captures(none) dereferenceable(40) %this, ptr noundef %Parent, ptr %Name.coerce0, i64 %Name.coerce1) local_unnamed_addr #0 align 2 {
entry:
  %0 = load ptr, ptr %this, align 8
  %Ctx.i.i = getelementptr inbounds nuw i8, ptr %0, i64 40
  %1 = load ptr, ptr %Ctx.i.i, align 8
  %stringTable_.i.i = getelementptr inbounds nuw i8, ptr %1, i64 72
  %call.i.i.i = tail call noundef ptr @_ZN6hermes11StringTable9getStringEN4llvh9StringRefE(ptr noundef nonnull align 8 dereferenceable(32) %stringTable_.i.i, ptr %Name.coerce0, i64 %Name.coerce1)
  %call.i = tail call noalias noundef nonnull dereferenceable(56) ptr @_Znwm(i64 noundef 56) #14
  tail call void @_ZN6hermes9ParameterC1EPNS_8FunctionENS_10IdentifierEb(ptr noundef nonnull align 8 dereferenceable(56) %call.i, ptr noundef %Parent, ptr %call.i.i.i, i1 noundef zeroext false) #15
  ret ptr %call.i
}